target datalayout = "e-m:e-p270:32:32-p271:32:32-p272:64:64-i64:64-i128:128-f80:128-n8:16:32:64-S128"
target triple = "x86_64-unknown-linux-gnu"

%struct.redisOptions = type { i32, i32, ptr, ptr, %union.anon, ptr, ptr, ptr, ptr }
%union.anon = type { %struct.anon }
%struct.anon = type { ptr, ptr, i32 }

; Function Attrs: nounwind uwtable
define ptr @redisAsyncConnectBind(ptr noundef %ip, i32 noundef %port, ptr noundef %source_addr) #0 {
entry:
  %ip.addr = alloca ptr, align 8
  %port.addr = alloca i32, align 4
  %source_addr.addr = alloca ptr, align 8
  %options = alloca %struct.redisOptions, align 8
  store ptr %ip, ptr %ip.addr, align 8
  store i32 %port, ptr %port.addr, align 4
  store ptr %source_addr, ptr %source_addr.addr, align 8
  call void @llvm.memset.p0.i64(ptr align 8 %options, i8 0, i64 80, i1 false)
  br label %do.body

do.body:                                          ; preds = %entry
  %type = getelementptr inbounds %struct.redisOptions, ptr %options, i32 0, i32 0
  store i32 0, ptr %type, align 8
  %0 = load ptr, ptr %ip.addr, align 8
  %endpoint = getelementptr inbounds %struct.redisOptions, ptr %options, i32 0, i32 4
  %ip1 = getelementptr inbounds %struct.anon, ptr %endpoint, i32 0, i32 1
  store ptr %0, ptr %ip1, align 8
  %1 = load i32, ptr %port.addr, align 4
  %endpoint2 = getelementptr inbounds %struct.redisOptions, ptr %options, i32 0, i32 4
  %port3 = getelementptr inbounds %struct.anon, ptr %endpoint2, i32 0, i32 2
  store i32 %1, ptr %port3, align 8
  br label %do.end

do.end:                                           ; preds = %do.body
  %2 = load ptr, ptr %source_addr.addr, align 8
  %endpoint4 = getelementptr inbounds %struct.redisOptions, ptr %options, i32 0, i32 4
  %source_addr5 = getelementptr inbounds %struct.anon, ptr %endpoint4, i32 0, i32 0
  store ptr %2, ptr %source_addr5, align 8
  %call = call ptr @redisAsyncConnectWithOptions(ptr noundef %options)
  ret ptr %call
}